; Function Attrs: inlinehint nounwind uwtable
define internal fastcc ptr @lean_int_sub(ptr noundef %0, ptr noundef %1) unnamed_addr #0 {
  %3 = ptrtoint ptr %0 to i64
  %4 = and i64 %3, 1
  %.not = icmp eq i64 %4, 0
  br i1 %.not, label %.critedge, label %5, !prof !4

5:                                                ; preds = %2
  %6 = ptrtoint ptr %1 to i64
  %7 = and i64 %6, 1
  %.not7 = icmp eq i64 %7, 0
  br i1 %.not7, label %.critedge, label %8, !prof !4

8:                                                ; preds = %5
  %9 = shl i64 %3, 31
  %10 = ashr i64 %9, 32
  %11 = shl i64 %6, 31
  %12 = ashr i64 %11, 32
  %13 = sub nsw i64 %10, %12
  %14 = add nsw i64 %13, 2147483648
  %15 = icmp ult i64 %14, 4294967296
  br i1 %15, label %16, label %21, !prof !5

16:                                               ; preds = %8
  %17 = shl nsw i64 %13, 1
  %18 = and i64 %17, 8589934590
  %19 = or disjoint i64 %18, 1
  %20 = inttoptr i64 %19 to ptr
  br label %lean_int64_to_int.exit

21:                                               ; preds = %8
  %22 = tail call ptr @lean_big_int64_to_int(i64 noundef range(i64 -4611686016279904256, 4611686018427387905) %13) #6
  br label %lean_int64_to_int.exit

.critedge:                                        ; preds = %2, %5
  %23 = tail call ptr @lean_int_big_sub(ptr noundef %0, ptr noundef %1) #6
  br label %lean_int64_to_int.exit

lean_int64_to_int.exit:                           ; preds = %21, %16, %.critedge
  %.0 = phi ptr [ %23, %.critedge ], [ %20, %16 ], [ %22, %21 ]
  ret ptr %.0
}